target datalayout = "e-m:e-p270:32:32-p271:32:32-p272:64:64-i64:64-i128:128-f80:128-n8:16:32:64-S128"
target triple = "x86_64-pc-linux-gnu"

%struct.malloc_mutex_s = type { %union.anon }
%union.anon = type { %struct.anon }
%struct.anon = type { %struct.mutex_prof_data_t, %struct.atomic_b_t, %union.pthread_mutex_t }
%struct.mutex_prof_data_t = type { %struct.nstime_t, %struct.nstime_t, i64, i64, i32, %struct.atomic_u32_t, i64, ptr, i64 }
%struct.nstime_t = type { i64 }
%struct.atomic_u32_t = type { i32 }
%struct.atomic_b_t = type { i8 }
%union.pthread_mutex_t = type { %struct.__pthread_mutex_s }
%struct.__pthread_mutex_s = type { i32, i32, i32, i32, i32, i16, i16, %struct.__pthread_internal_list }
%struct.__pthread_internal_list = type { ptr, ptr }
%struct.pa_shard_s = type { ptr, %struct.atomic_zu_t, %struct.atomic_b_t, i8, %struct.pac_s, %struct.sec_s, %struct.hpa_shard_s, %struct.edata_cache_s, i32, ptr, ptr, ptr, ptr }
%struct.atomic_zu_t = type { i64 }
%struct.pac_s = type { %struct.pai_s, %struct.ecache_s, %struct.ecache_s, %struct.ecache_s, ptr, ptr, ptr, %struct.exp_grow_s, %struct.malloc_mutex_s, %struct.san_bump_alloc_s, %struct.atomic_zu_t, %struct.decay_s, %struct.decay_s, ptr, ptr, %struct.atomic_zu_t }
%struct.pai_s = type { ptr, ptr, ptr, ptr, ptr, ptr, ptr }
%struct.ecache_s = type { %struct.malloc_mutex_s, %struct.eset_s, %struct.eset_s, i32, i32, i8 }
%struct.eset_s = type { [4 x i64], [200 x %struct.eset_bin_s], [200 x %struct.eset_bin_stats_s], %struct.edata_list_inactive_t, %struct.atomic_zu_t, i32 }
%struct.eset_bin_s = type { %struct.edata_heap_t, %struct.edata_cmp_summary_s }
%struct.edata_heap_t = type { %struct.ph_s }
%struct.ph_s = type { ptr, i64 }
%struct.edata_cmp_summary_s = type { i64, i64 }
%struct.eset_bin_stats_s = type { %struct.atomic_zu_t, %struct.atomic_zu_t }
%struct.edata_list_inactive_t = type { %struct.anon.1 }
%struct.anon.1 = type { ptr }
%struct.exp_grow_s = type { i32, i32 }
%struct.san_bump_alloc_s = type { %struct.malloc_mutex_s, ptr }
%struct.decay_s = type { %struct.malloc_mutex_s, i8, %struct.atomic_zd_t, %struct.nstime_t, %struct.nstime_t, i64, %struct.nstime_t, i64, i64, [200 x i64], i64 }
%struct.atomic_zd_t = type { i64 }
%struct.sec_s = type { %struct.pai_s, ptr, %struct.sec_opts_s, ptr, i32 }
%struct.sec_opts_s = type { i64, i64, i64, i64, i64 }
%struct.hpa_shard_s = type { %struct.pai_s, ptr, %struct.malloc_mutex_s, %struct.malloc_mutex_s, ptr, %struct.edata_cache_fast_s, %struct.psset_s, i64, i32, ptr, %struct.hpa_shard_opts_s, i64, %struct.hpa_shard_nonderived_stats_s, %struct.nstime_t }
%struct.edata_cache_fast_s = type { %struct.edata_list_inactive_t, ptr, i8 }
%struct.psset_s = type { [64 x %struct.hpdata_age_heap_t], [1 x i64], %struct.psset_stats_s, %struct.hpdata_empty_list_t, [128 x %struct.hpdata_purge_list_t], [2 x i64], %struct.hpdata_hugify_list_t }
%struct.hpdata_age_heap_t = type { %struct.ph_s }
%struct.psset_stats_s = type { %struct.psset_bin_stats_s, [2 x %struct.psset_bin_stats_s], [64 x [2 x %struct.psset_bin_stats_s]], [2 x %struct.psset_bin_stats_s], [2 x %struct.psset_bin_stats_s] }
%struct.psset_bin_stats_s = type { i64, i64, i64 }
%struct.hpdata_empty_list_t = type { %struct.anon.2 }
%struct.anon.2 = type { ptr }
%struct.hpdata_purge_list_t = type { %struct.anon.3 }
%struct.anon.3 = type { ptr }
%struct.hpdata_hugify_list_t = type { %struct.anon.4 }
%struct.anon.4 = type { ptr }
%struct.hpa_shard_opts_s = type { i64, i64, i32, i8, i64, i8, i64, i64 }
%struct.hpa_shard_nonderived_stats_s = type { i64, i64, i64, i64, i64 }
%struct.edata_cache_s = type { %struct.edata_avail_t, %struct.atomic_zu_t, %struct.malloc_mutex_s, ptr }
%struct.edata_avail_t = type { %struct.ph_s }
%struct.edata_s = type { i64, ptr, %union.anon.7, ptr, i64, %union.anon.8, %union.anon.11 }
%union.anon.7 = type { i64 }
%union.anon.8 = type { %union.anon.10 }
%union.anon.10 = type { %struct.edata_heap_link_t }
%struct.edata_heap_link_t = type { %struct.phn_link_s }
%struct.phn_link_s = type { ptr, ptr, ptr }
%union.anon.11 = type { %struct.slab_data_s }
%struct.slab_data_s = type { [8 x i64] }

; Function Attrs: alwaysinline nounwind uwtable
define internal i32 @atomic_enum_to_builtin(i32 noundef %0) #3 {
  %2 = alloca i32, align 4
  %3 = alloca i32, align 4
  store i32 %0, ptr %3, align 4, !tbaa !23
  %4 = load i32, ptr %3, align 4, !tbaa !23
  switch i32 %4, label %10 [
    i32 0, label %5
    i32 1, label %6
    i32 2, label %7
    i32 3, label %8
    i32 4, label %9
  ]

5:                                                ; preds = %1
  store i32 0, ptr %2, align 4
  br label %12

6:                                                ; preds = %1
  store i32 2, ptr %2, align 4
  br label %12

7:                                                ; preds = %1
  store i32 3, ptr %2, align 4
  br label %12

8:                                                ; preds = %1
  store i32 4, ptr %2, align 4
  br label %12

9:                                                ; preds = %1
  store i32 5, ptr %2, align 4
  br label %12

10:                                               ; preds = %1
  br label %11

11:                                               ; preds = %10
  unreachable

12:                                               ; preds = %5, %6, %7, %8, %9
  %13 = load i32, ptr %2, align 4
  ret i32 %13
}

; Function Attrs: inlinehint nounwind uwtable
define internal i32 @edata_pai_get(ptr noundef %0) #5 {
  %2 = alloca ptr, align 8
  store ptr %0, ptr %2, align 8, !tbaa !79
  %3 = load ptr, ptr %2, align 8, !tbaa !79
  %4 = getelementptr inbounds nuw %struct.edata_s, ptr %3, i32 0, i32 0
  %5 = load i64, ptr %4, align 8, !tbaa !86
  %6 = and i64 %5, 16384
  %7 = lshr i64 %6, 14
  %8 = trunc i64 %7 to i32
  ret i32 %8
}

; Function Attrs: alwaysinline nounwind uwtable
define internal i64 @atomic_fetch_sub_zu(ptr noundef %0, i64 noundef %1, i32 noundef %2) #3 {
  %4 = alloca ptr, align 8
  %5 = alloca i64, align 8
  %6 = alloca i32, align 4
  %7 = alloca i64, align 8
  %8 = alloca i64, align 8
  store ptr %0, ptr %4, align 8, !tbaa !29
  store i64 %1, ptr %5, align 8, !tbaa !30
  store i32 %2, ptr %6, align 4, !tbaa !23
  %9 = load ptr, ptr %4, align 8, !tbaa !29
  %10 = getelementptr inbounds nuw %struct.atomic_zu_t, ptr %9, i32 0, i32 0
  %11 = load i32, ptr %6, align 4, !tbaa !23
  %12 = call i32 @atomic_enum_to_builtin(i32 noundef %11)
  %13 = load i64, ptr %5, align 8, !tbaa !30
  store i64 %13, ptr %7, align 8, !tbaa !30
  switch i32 %12, label %14 [
    i32 1, label %17
    i32 2, label %17
    i32 3, label %20
    i32 4, label %23
    i32 5, label %26
  ]

14:                                               ; preds = %3
  %15 = load i64, ptr %7, align 8
  %16 = atomicrmw sub ptr %10, i64 %15 monotonic, align 8
  store i64 %16, ptr %8, align 8
  br label %29

17:                                               ; preds = %3, %3
  %18 = load i64, ptr %7, align 8
  %19 = atomicrmw sub ptr %10, i64 %18 acquire, align 8
  store i64 %19, ptr %8, align 8
  br label %29

20:                                               ; preds = %3
  %21 = load i64, ptr %7, align 8
  %22 = atomicrmw sub ptr %10, i64 %21 release, align 8
  store i64 %22, ptr %8, align 8
  br label %29

23:                                               ; preds = %3
  %24 = load i64, ptr %7, align 8
  %25 = atomicrmw sub ptr %10, i64 %24 acq_rel, align 8
  store i64 %25, ptr %8, align 8
  br label %29

26:                                               ; preds = %3
  %27 = load i64, ptr %7, align 8
  %28 = atomicrmw sub ptr %10, i64 %27 seq_cst, align 8
  store i64 %28, ptr %8, align 8
  br label %29

29:                                               ; preds = %26, %23, %20, %17, %14
  %30 = load i64, ptr %8, align 8, !tbaa !30
  ret i64 %30
}

; Function Attrs: inlinehint nounwind uwtable
define internal void @pai_dalloc(ptr noundef %0, ptr noundef %1, ptr noundef %2, ptr noundef %3) #5 {
  %5 = alloca ptr, align 8
  %6 = alloca ptr, align 8
  %7 = alloca ptr, align 8
  %8 = alloca ptr, align 8
  store ptr %0, ptr %5, align 8, !tbaa !17
  store ptr %1, ptr %6, align 8, !tbaa !84
  store ptr %2, ptr %7, align 8, !tbaa !79
  store ptr %3, ptr %8, align 8, !tbaa !77
  %9 = load ptr, ptr %6, align 8, !tbaa !84
  %10 = getelementptr inbounds nuw %struct.pai_s, ptr %9, i32 0, i32 4
  %11 = load ptr, ptr %10, align 8, !tbaa !92
  %12 = load ptr, ptr %5, align 8, !tbaa !17
  %13 = load ptr, ptr %6, align 8, !tbaa !84
  %14 = load ptr, ptr %7, align 8, !tbaa !79
  %15 = load ptr, ptr %8, align 8, !tbaa !77
  call void %11(ptr noundef %12, ptr noundef %13, ptr noundef %14, ptr noundef %15)
  ret void
}

; Function Attrs: nounwind uwtable
define internal ptr @pa_get_pai(ptr noundef %0, ptr noundef %1) #0 {
  %3 = alloca ptr, align 8
  %4 = alloca ptr, align 8
  store ptr %0, ptr %3, align 8, !tbaa !19
  store ptr %1, ptr %4, align 8, !tbaa !79
  %5 = load ptr, ptr %4, align 8, !tbaa !79
  %6 = call i32 @edata_pai_get(ptr noundef %5)
  %7 = icmp eq i32 %6, 0
  br i1 %7, label %8, label %12

8:                                                ; preds = %2
  %9 = load ptr, ptr %3, align 8, !tbaa !19
  %10 = getelementptr inbounds nuw %struct.pa_shard_s, ptr %9, i32 0, i32 4
  %11 = getelementptr inbounds nuw %struct.pac_s, ptr %10, i32 0, i32 0
  br label %16

12:                                               ; preds = %2
  %13 = load ptr, ptr %3, align 8, !tbaa !19
  %14 = getelementptr inbounds nuw %struct.pa_shard_s, ptr %13, i32 0, i32 5
  %15 = getelementptr inbounds nuw %struct.sec_s, ptr %14, i32 0, i32 0
  br label %16

16:                                               ; preds = %12, %8
  %17 = phi ptr [ %11, %8 ], [ %15, %12 ]
  ret ptr %17
}

; Function Attrs: nounwind uwtable
define internal void @pa_nactive_sub(ptr noundef %0, i64 noundef %1) #0 {
  %3 = alloca ptr, align 8
  %4 = alloca i64, align 8
  store ptr %0, ptr %3, align 8, !tbaa !19
  store i64 %1, ptr %4, align 8, !tbaa !30
  br label %5

5:                                                ; preds = %2
  br label %6

6:                                                ; preds = %5
  %7 = load ptr, ptr %3, align 8, !tbaa !19
  %8 = getelementptr inbounds nuw %struct.pa_shard_s, ptr %7, i32 0, i32 1
  %9 = load i64, ptr %4, align 8, !tbaa !30
  %10 = call i64 @atomic_fetch_sub_zu(ptr noundef %8, i64 noundef %9, i32 noundef 0)
  ret void
}

; Function Attrs: inlinehint nounwind uwtable
define internal i64 @edata_size_get(ptr noundef %0) #5 {
  %2 = alloca ptr, align 8
  store ptr %0, ptr %2, align 8, !tbaa !79
  %3 = load ptr, ptr %2, align 8, !tbaa !79
  %4 = getelementptr inbounds nuw %struct.edata_s, ptr %3, i32 0, i32 2
  %5 = load i64, ptr %4, align 8, !tbaa !91
  %6 = and i64 %5, -4096
  ret i64 %6
}

; Function Attrs: inlinehint nounwind uwtable
define internal void @edata_szind_set(ptr noundef %0, i32 noundef %1) #5 {
  %3 = alloca ptr, align 8
  %4 = alloca i32, align 4
  store ptr %0, ptr %3, align 8, !tbaa !79
  store i32 %1, ptr %4, align 4, !tbaa !23
  br label %5

5:                                                ; preds = %2
  br label %6

6:                                                ; preds = %5
  %7 = load ptr, ptr %3, align 8, !tbaa !79
  %8 = getelementptr inbounds nuw %struct.edata_s, ptr %7, i32 0, i32 0
  %9 = load i64, ptr %8, align 8, !tbaa !86
  %10 = and i64 %9, -267386881
  %11 = load i32, ptr %4, align 4, !tbaa !23
  %12 = zext i32 %11 to i64
  %13 = shl i64 %12, 20
  %14 = or i64 %10, %13
  %15 = load ptr, ptr %3, align 8, !tbaa !79
  %16 = getelementptr inbounds nuw %struct.edata_s, ptr %15, i32 0, i32 0
  store i64 %14, ptr %16, align 8, !tbaa !86
  ret void
}

; Function Attrs: inlinehint nounwind uwtable
define internal void @edata_addr_set(ptr noundef %0, ptr noundef %1) #5 {
  %3 = alloca ptr, align 8
  %4 = alloca ptr, align 8
  store ptr %0, ptr %3, align 8, !tbaa !79
  store ptr %1, ptr %4, align 8, !tbaa !29
  %5 = load ptr, ptr %4, align 8, !tbaa !29
  %6 = load ptr, ptr %3, align 8, !tbaa !79
  %7 = getelementptr inbounds nuw %struct.edata_s, ptr %6, i32 0, i32 1
  store ptr %5, ptr %7, align 8, !tbaa !90
  ret void
}

; Function Attrs: inlinehint nounwind uwtable
define internal ptr @edata_base_get(ptr noundef %0) #5 {
  %2 = alloca ptr, align 8
  store ptr %0, ptr %2, align 8, !tbaa !79
  br label %3

3:                                                ; preds = %1
  br label %4

4:                                                ; preds = %3
  %5 = load ptr, ptr %2, align 8, !tbaa !79
  %6 = getelementptr inbounds nuw %struct.edata_s, ptr %5, i32 0, i32 1
  %7 = load ptr, ptr %6, align 8, !tbaa !90
  %8 = load ptr, ptr %2, align 8, !tbaa !79
  %9 = getelementptr inbounds nuw %struct.edata_s, ptr %8, i32 0, i32 1
  %10 = load ptr, ptr %9, align 8, !tbaa !90
  %11 = ptrtoint ptr %10 to i64
  %12 = load ptr, ptr %2, align 8, !tbaa !79
  %13 = getelementptr inbounds nuw %struct.edata_s, ptr %12, i32 0, i32 1
  %14 = load ptr, ptr %13, align 8, !tbaa !90
  %15 = ptrtoint ptr %14 to i64
  %16 = and i64 %15, -4096
  %17 = sub i64 %11, %16
  %18 = sub i64 0, %17
  %19 = getelementptr inbounds i8, ptr %7, i64 %18
  ret ptr %19
}

; Function Attrs: inlinehint nounwind uwtable
define internal zeroext i1 @edata_slab_get(ptr noundef %0) #5 {
  %2 = alloca ptr, align 8
  store ptr %0, ptr %2, align 8, !tbaa !79
  %3 = load ptr, ptr %2, align 8, !tbaa !79
  %4 = getelementptr inbounds nuw %struct.edata_s, ptr %3, i32 0, i32 0
  %5 = load i64, ptr %4, align 8, !tbaa !86
  %6 = and i64 %5, 4096
  %7 = lshr i64 %6, 12
  %8 = icmp ne i64 %7, 0
  ret i1 %8
}

; Function Attrs: nounwind uwtable
define hidden void @je_pa_dalloc(ptr noundef %0, ptr noundef %1, ptr noundef %2, ptr noundef %3) #0 {
  %5 = alloca ptr, align 8
  %6 = alloca ptr, align 8
  %7 = alloca ptr, align 8
  %8 = alloca ptr, align 8
  %9 = alloca ptr, align 8
  store ptr %0, ptr %5, align 8, !tbaa !17
  store ptr %1, ptr %6, align 8, !tbaa !19
  store ptr %2, ptr %7, align 8, !tbaa !79
  store ptr %3, ptr %8, align 8, !tbaa !77
  %10 = load ptr, ptr %5, align 8, !tbaa !17
  %11 = load ptr, ptr %6, align 8, !tbaa !19
  %12 = getelementptr inbounds nuw %struct.pa_shard_s, ptr %11, i32 0, i32 11
  %13 = load ptr, ptr %12, align 8, !tbaa !71
  %14 = load ptr, ptr %7, align 8, !tbaa !79
  call void @je_emap_remap(ptr noundef %10, ptr noundef %13, ptr noundef %14, i32 noundef 232, i1 noundef zeroext false)
  %15 = load ptr, ptr %7, align 8, !tbaa !79
  %16 = call zeroext i1 @edata_slab_get(ptr noundef %15)
  br i1 %16, label %17, label %23

17:                                               ; preds = %4
  %18 = load ptr, ptr %5, align 8, !tbaa !17
  %19 = load ptr, ptr %6, align 8, !tbaa !19
  %20 = getelementptr inbounds nuw %struct.pa_shard_s, ptr %19, i32 0, i32 11
  %21 = load ptr, ptr %20, align 8, !tbaa !71
  %22 = load ptr, ptr %7, align 8, !tbaa !79
  call void @je_emap_deregister_interior(ptr noundef %18, ptr noundef %21, ptr noundef %22)
  br label %23

23:                                               ; preds = %17, %4
  %24 = load ptr, ptr %7, align 8, !tbaa !79
  %25 = load ptr, ptr %7, align 8, !tbaa !79
  %26 = call ptr @edata_base_get(ptr noundef %25)
  call void @edata_addr_set(ptr noundef %24, ptr noundef %26)
  %27 = load ptr, ptr %7, align 8, !tbaa !79
  call void @edata_szind_set(ptr noundef %27, i32 noundef 232)
  %28 = load ptr, ptr %6, align 8, !tbaa !19
  %29 = load ptr, ptr %7, align 8, !tbaa !79
  %30 = call i64 @edata_size_get(ptr noundef %29)
  %31 = lshr i64 %30, 12
  call void @pa_nactive_sub(ptr noundef %28, i64 noundef %31)
  call void @llvm.lifetime.start.p0(i64 8, ptr %9) #6
  %32 = load ptr, ptr %6, align 8, !tbaa !19
  %33 = load ptr, ptr %7, align 8, !tbaa !79
  %34 = call ptr @pa_get_pai(ptr noundef %32, ptr noundef %33)
  store ptr %34, ptr %9, align 8, !tbaa !84
  %35 = load ptr, ptr %5, align 8, !tbaa !17
  %36 = load ptr, ptr %9, align 8, !tbaa !84
  %37 = load ptr, ptr %7, align 8, !tbaa !79
  %38 = load ptr, ptr %8, align 8, !tbaa !77
  call void @pai_dalloc(ptr noundef %35, ptr noundef %36, ptr noundef %37, ptr noundef %38)
  call void @llvm.lifetime.end.p0(i64 8, ptr %9) #6
  ret void
}