; Function Attrs: nounwind uwtable
define hidden void @je_pa_dalloc(ptr noundef %0, ptr noundef %1, ptr noundef %2, ptr noundef %3) local_unnamed_addr #0 {
  %5 = getelementptr inbounds nuw i8, ptr %1, i64 68336
  %6 = load ptr, ptr %5, align 8, !tbaa !54
  tail call void @je_emap_remap(ptr noundef %0, ptr noundef %6, ptr noundef %2, i32 noundef 232, i1 noundef zeroext false) #4
  %.val18 = load i64, ptr %2, align 8, !tbaa !59
  %7 = and i64 %.val18, 4096
  %.not = icmp eq i64 %7, 0
  br i1 %.not, label %10, label %8

8:                                                ; preds = %4
  %9 = load ptr, ptr %5, align 8, !tbaa !54
  tail call void @je_emap_deregister_interior(ptr noundef %0, ptr noundef %9, ptr noundef nonnull %2) #4
  %.pre = load i64, ptr %2, align 8, !tbaa !59
  br label %10

10:                                               ; preds = %8, %4
  %11 = phi i64 [ %.pre, %8 ], [ %.val18, %4 ]
  %12 = getelementptr i8, ptr %2, i64 8
  %.val19 = load ptr, ptr %12, align 8, !tbaa !63
  %13 = ptrtoint ptr %.val19 to i64
  %14 = and i64 %13, 4095
  %15 = sub nsw i64 0, %14
  %16 = getelementptr inbounds i8, ptr %.val19, i64 %15
  store ptr %16, ptr %12, align 8, !tbaa !63
  %17 = and i64 %11, -267386881
  %18 = or disjoint i64 %17, 243269632
  store i64 %18, ptr %2, align 8, !tbaa !59
  %19 = getelementptr i8, ptr %2, i64 16
  %.val20 = load i64, ptr %19, align 8, !tbaa !64
  %20 = lshr i64 %.val20, 12
  %21 = getelementptr inbounds nuw i8, ptr %1, i64 8
  %22 = atomicrmw sub ptr %21, i64 %20 monotonic, align 8
  %.val = load i64, ptr %2, align 8, !tbaa !59
  %23 = and i64 %.val, 16384
  %24 = icmp eq i64 %23, 0
  %.v.i = select i1 %24, i64 24, i64 62264
  %25 = getelementptr inbounds nuw i8, ptr %1, i64 %.v.i
  %26 = getelementptr inbounds nuw i8, ptr %25, i64 32
  %27 = load ptr, ptr %26, align 8, !tbaa !65
  tail call void %27(ptr noundef %0, ptr noundef nonnull %25, ptr noundef nonnull %2, ptr noundef %3) #4
  ret void
}